Certificate:
    Data:
        Version: 3 (0x2)
        Serial Number: 10258707446770289157 (0x8e5e4011e365ca05)
    Signature Algorithm: sha256WithRSAEncryption
        Issuer: C=AU, ST=Some-State, O=Internet Widgits Pty Ltd
        Validity
            Not Before: Feb  3 01:55:03 2015 GMT
            Not After : Mar  5 01:55:03 2015 GMT
        Subject: C=AU, ST=Some-State, O=Internet Widgits Pty Ltd
        Subject Public Key Info:
            Public Key Algorithm: rsaEncryption
                Public-Key: (2048 bit)
                Modulus:
                    00:df:3d:a1:05:56:61:52:99:5e:50:54:2f:e3:a9:
                    f4:73:64:2f:fc:e4:68:d7:98:a2:15:65:43:87:d3:
                    b5:e8:25:53:44:eb:03:fc:77:03:a1:77:59:7c:2c:
                    4c:09:81:49:75:bc:e8:43:5f:9d:d3:a7:f1:3e:b8:
                    a0:ad:f0:bb:29:c0:fd:00:f3:74:a8:b8:c5:7d:68:
                    a5:8d:95:c9:94:62:2a:54:1f:d4:9a:85:2c:0b:4e:
                    f9:81:52:df:ed:a8:0a:66:d5:e8:fa:8e:45:21:1f:
                    fd:06:58:71:a7:21:6d:7a:2e:8a:db:f0:a1:67:92:
                    e3:e3:ca:21:e8:6e:38:ce:69:34:7a:55:03:ad:e4:
                    3a:ea:64:0e:44:de:51:b7:a3:a3:33:4d:af:7b:ee:
                    8e:ea:d9:4b:74:65:fc:6a:55:e1:57:14:d7:4e:25:
                    69:45:ae:f0:06:d2:a8:92:1c:74:1d:d9:ba:13:06:
                    8d:60:b9:67:36:98:db:23:c1:6b:99:f2:28:45:47:
                    26:95:82:2a:d5:45:a4:26:5c:2e:2c:17:2f:58:52:
                    14:88:1c:93:cd:e0:16:5f:34:b4:ee:12:76:f6:56:
                    17:ad:b9:d6:7a:a1:d1:cb:9b:bf:67:12:7e:d5:be:
                    ff:1d:ba:f0:48:58:54:03:9a:d8:a6:d4:92:69:3a:
                    6d:d7
                Exponent: 65537 (0x10001)
        X509v3 extensions:
            X509v3 Subject Key Identifier: 
                E4:38:50:AE:67:D8:C2:E7:04:02:86:C6:68:A9:C3:D2:81:5A:0A:60
            X509v3 Authority Key Identifier: 
                keyid:E4:38:50:AE:67:D8:C2:E7:04:02:86:C6:68:A9:C3:D2:81:5A:0A:60

            X509v3 Basic Constraints: 
                CA:TRUE
    Signature Algorithm: sha256WithRSAEncryption
         9d:fe:dd:98:b6:a9:7b:6b:8b:5e:7f:30:82:42:53:f3:c3:7a:
         82:ff:89:08:92:ea:eb:41:d6:c5:9e:27:4e:1e:f7:cb:a2:53:
         de:8e:e9:46:c2:e4:f0:04:8f:82:2d:76:83:9a:76:8d:07:6b:
         ae:2c:62:a3:36:42:81:e3:4f:84:af:fd:d3:0e:74:8a:cd:33:
         ee:3f:af:f4:8e:e0:a2:78:0d:0a:17:60:70:33:fd:0b:a7:05:
         ed:46:64:f7:e5:03:9d:69:a6:cd:d0:82:d0:ef:05:75:e0:1c:
         96:52:cb:99:c5:13:c8:15:97:15:4c:cd:b7:c8:dc:85:50:cb:
         fe:31:67:9b:8b:1e:e8:2d:a6:28:fa:21:03:c0:c1:8d:9f:22:
         5b:4c:b0:c5:3c:6f:39:05:48:88:11:0e:86:88:14:96:2b:82:
         84:16:f6:13:3e:3c:27:ed:11:a3:60:d2:7e:90:3d:d8:93:f8:
         d5:00:ca:c8:2b:7f:95:ff:b7:ba:6d:2d:32:09:36:84:a3:3f:
         2c:20:48:9b:17:1f:2a:dc:81:a3:cc:4a:87:43:33:15:fb:95:
         25:1e:9d:21:15:d0:3c:61:29:ec:f9:01:83:9c:d6:56:d3:60:
         dd:ad:3c:fb:c2:60:8d:b0:81:3c:54:13:13:e5:57:df:64:fc:
         f1:3e:c0:ba
-----BEGIN CERTIFICATE-----
MIIDXTCCAkWgAwIBAgIJAI5eQBHjZcoFMA0GCSqGSIb3DQEBCwUAMEUxCzAJBgNV
BAYTAkFVMRMwEQYDVQQIDApTb21lLVN0YXRlMSEwHwYDVQQKDBhJbnRlcm5ldCBX
aWRnaXRzIFB0eSBMdGQwHhcNMTUwMjAzMDE1NTAzWhcNMTUwMzA1MDE1NTAzWjBF
MQswCQYDVQQGEwJBVTETMBEGA1UECAwKU29tZS1TdGF0ZTEhMB8GA1UECgwYSW50
ZXJuZXQgV2lkZ2l0cyBQdHkgTHRkMIIBIjANBgkqhkiG9w0BAQEFAAOCAQ8AMIIB
CgKCAQEA3z2hBVZhUpleUFQv46n0c2Qv/ORo15iiFWVDh9O16CVTROsD/HcDoXdZ
fCxMCYFJdbzoQ1+d06fxPrigrfC7KcD9APN0qLjFfWiljZXJlGIqVB/UmoUsC075
gVLf7agKZtXo+o5FIR/9BlhxpyFtei6K2/ChZ5Lj48oh6G44zmk0elUDreQ66mQO
RN5Rt6OjM02ve+6O6tlLdGX8alXhVxTXTiVpRa7wBtKokhx0Hdm6EwaNYLlnNpjb
I8FrmfIoRUcmlYIq1UWkJlwuLBcvWFIUiByTzeAWXzS07hJ29lYXrbnWeqHRy5u/
ZxJ+1b7/HbrwSFhUA5rYptSSaTpt1wIDAQABo1AwTjAdBgNVHQ4EFgQU5DhQrmfY
wucEAobGaKnD0oFaCmAwHwYDVR0jBBgwFoAU5DhQrmfYwucEAobGaKnD0oFaCmAw
DAYDVR0TBAUwAwEB/zANBgkqhkiG9w0BAQsFAAOCAQEAnf7dmLape2uLXn8wgkJT
88N6gv+JCJLq60HWxZ4nTh73y6JT3o7pRsLk8ASPgi12g5p2jQdrrixiozZCgeNP
hK/90w50is0z7j+v9I7gongNChdgcDP9C6cF7UZk9+UDnWmmzdCC0O8FdeAcllLL
mcUTyBWXFUzNt8jchVDL/jFnm4se6C2mKPohA8DBjZ8iW0ywxTxvOQVIiBEOhogU
liuChBb2Ez48J+0Ro2DSfpA92JP41QDKyCt/lf+3um0tMgk2hKM/LCBImxcfKtyB
o8xKh0MzFfuVJR6dIRXQPGEp7PkBg5zWVtNg3a08+8JgjbCBPFQTE+VX32T88T7A
ug==
-----END CERTIFICATE-----
